target datalayout = "e-m:e-p270:32:32-p271:32:32-p272:64:64-i64:64-i128:128-f80:128-n8:16:32:64-S128"
target triple = "x86_64-pc-linux-gnu"

%struct._GtkTreeIter = type { i32, ptr, ptr, ptr }

; Function Attrs: nounwind uwtable
define internal void @_delete_line_and_empty_parent(ptr noundef %0, ptr noundef %1) #0 {
  %3 = alloca ptr, align 8
  %4 = alloca ptr, align 8
  %5 = alloca %struct._GtkTreeIter, align 8
  store ptr %0, ptr %3, align 8, !tbaa !146
  store ptr %1, ptr %4, align 8, !tbaa !148
  call void @llvm.lifetime.start.p0(i64 32, ptr %5) #10
  %6 = load ptr, ptr %3, align 8, !tbaa !146
  %7 = load ptr, ptr %4, align 8, !tbaa !148
  %8 = call i32 @gtk_tree_model_iter_parent(ptr noundef %6, ptr noundef %5, ptr noundef %7)
  %9 = load ptr, ptr %3, align 8, !tbaa !146
  %10 = call i64 @gtk_tree_store_get_type() #11
  %11 = call ptr @g_type_check_instance_cast(ptr noundef %9, i64 noundef %10)
  %12 = load ptr, ptr %4, align 8, !tbaa !148
  %13 = call i32 @gtk_tree_store_remove(ptr noundef %11, ptr noundef %12)
  %14 = load ptr, ptr %3, align 8, !tbaa !146
  %15 = call i32 @gtk_tree_model_iter_has_child(ptr noundef %14, ptr noundef %5)
  %16 = icmp ne i32 %15, 0
  br i1 %16, label %22, label %17

17:                                               ; preds = %2
  %18 = load ptr, ptr %3, align 8, !tbaa !146
  %19 = call i64 @gtk_tree_store_get_type() #11
  %20 = call ptr @g_type_check_instance_cast(ptr noundef %18, i64 noundef %19)
  %21 = call i32 @gtk_tree_store_remove(ptr noundef %20, ptr noundef %5)
  br label %22

22:                                               ; preds = %17, %2
  call void @llvm.lifetime.end.p0(i64 32, ptr %5) #10
  ret void
}