; Function Attrs: nounwind uwtable
define internal fastcc void @_delete_line_and_empty_parent(ptr noundef %0, ptr noundef %1) unnamed_addr #0 {
  %3 = alloca %struct._GtkTreeIter, align 8
  call void @llvm.lifetime.start.p0(i64 32, ptr nonnull %3) #12
  %4 = call i32 @gtk_tree_model_iter_parent(ptr noundef %0, ptr noundef nonnull %3, ptr noundef %1) #12
  %5 = tail call i64 @gtk_tree_store_get_type() #13
  %6 = call ptr @g_type_check_instance_cast(ptr noundef %0, i64 noundef %5) #12
  %7 = call i32 @gtk_tree_store_remove(ptr noundef %6, ptr noundef %1) #12
  %8 = call i32 @gtk_tree_model_iter_has_child(ptr noundef %0, ptr noundef nonnull %3) #12
  %.not = icmp eq i32 %8, 0
  br i1 %.not, label %9, label %12

9:                                                ; preds = %2
  %10 = call ptr @g_type_check_instance_cast(ptr noundef %0, i64 noundef %5) #12
  %11 = call i32 @gtk_tree_store_remove(ptr noundef %10, ptr noundef nonnull %3) #12
  br label %12

12:                                               ; preds = %9, %2
  call void @llvm.lifetime.end.p0(i64 32, ptr nonnull %3) #12
  ret void
}